Certificate:
    Data:
        Version: 3 (0x2)
        Serial Number: 1 (0x1)
    Signature Algorithm: sha256WithRSAEncryption
        Issuer: O=Test Org, CN=Test Org rauc CA Development
        Validity
            Not Before: Jan  1 00:00:00 1970 GMT
            Not After : Dec 31 23:59:59 9999 GMT
        Subject: O=Test Org, CN=Test Org rauc CA Development
        Subject Public Key Info:
            Public Key Algorithm: rsaEncryption
                Public-Key: (2048 bit)
                Modulus:
                    00:c9:d3:d0:c1:72:4b:ca:f7:57:68:ad:05:c2:a3:
                    73:80:99:c6:7f:41:43:50:67:55:09:f9:38:f3:4b:
                    60:6a:dd:56:ec:5e:d7:21:36:53:ed:24:29:7f:21:
                    dd:7e:0f:c3:4c:ca:69:82:53:fb:1b:04:12:0e:4a:
                    d5:8a:c6:50:cd:d8:96:b6:46:0a:f0:b3:dc:e0:d2:
                    ff:29:1e:19:9f:c5:f3:f3:15:ab:d9:76:9d:73:fe:
                    ca:a4:e7:ff:f1:30:b7:e7:7d:fc:ec:0a:dc:1b:f2:
                    12:2e:15:73:0f:be:7e:2b:3b:fa:7b:50:70:a5:3f:
                    c7:b7:7b:83:cd:b4:7b:4b:8b:b8:75:a9:96:59:8f:
                    38:aa:b7:29:ae:37:45:5c:b7:ad:18:93:e5:2f:86:
                    07:34:b1:77:84:88:c4:dd:a5:63:b7:27:56:d8:f7:
                    94:6b:1a:2b:5a:21:0f:63:7b:f0:14:6a:17:ca:1d:
                    af:8a:c0:e5:90:99:42:1f:e9:f6:7a:9e:0f:4e:86:
                    95:3b:f4:99:3c:83:53:d7:5d:d8:56:1f:99:25:9c:
                    1c:b9:7b:3c:61:a8:42:8c:54:2e:46:f8:41:22:54:
                    e6:96:38:12:88:e8:3c:cb:c1:6d:65:16:ad:12:0f:
                    69:8a:e2:7f:d8:e9:be:d5:8c:d1:5c:3a:27:72:8f:
                    f9:fb
                Exponent: 65537 (0x10001)
        X509v3 extensions:
            X509v3 Subject Key Identifier: 
                3E:CF:40:FF:18:41:35:16:D1:D3:C8:C6:3C:71:3C:EE:CB:3F:63:45
            X509v3 Authority Key Identifier: 
                keyid:3E:CF:40:FF:18:41:35:16:D1:D3:C8:C6:3C:71:3C:EE:CB:3F:63:45
                DirName:/O=Test Org/CN=Test Org rauc CA Development
                serial:01

            X509v3 Basic Constraints: 
                CA:TRUE
    Signature Algorithm: sha256WithRSAEncryption
         b1:54:aa:45:ea:04:55:10:58:a2:c9:9a:df:fe:5c:48:47:da:
         9f:3e:4b:f3:ea:68:99:d2:a6:78:79:a7:48:23:d5:de:54:7a:
         86:43:78:7d:2c:8f:ab:ea:f1:a6:20:38:35:c3:a0:61:a3:c9:
         3e:3c:61:2b:88:c0:da:4f:db:b5:46:43:3b:3d:f1:ad:49:1f:
         b4:dd:b1:0b:66:f0:d6:58:96:49:e7:68:05:01:83:49:5c:43:
         66:38:68:f3:da:40:f6:18:84:0a:b2:82:6e:5e:c1:f2:5e:a9:
         5a:5c:4e:88:7e:fc:92:e0:74:51:ce:c6:57:c7:38:8c:80:20:
         47:c2:01:ef:49:3c:7e:16:50:fe:24:8f:b3:48:ef:5c:08:53:
         7a:6e:26:42:b4:9a:c9:99:0a:05:1c:43:32:20:a7:7e:44:45:
         d6:33:c3:cf:91:8a:aa:48:4c:a8:22:43:49:df:47:30:28:64:
         5b:04:7b:2d:46:30:b8:19:5a:e6:6c:ce:e3:10:19:34:ac:9c:
         cb:f6:18:3b:21:9d:f6:d5:6c:8f:79:af:7f:cb:16:21:c2:45:
         c8:cb:07:5e:b5:37:72:1f:9b:b2:03:78:c7:70:8e:13:3a:84:
         cf:c7:af:21:bf:dc:77:eb:25:a0:b7:b5:9b:eb:17:bc:fb:25:
         a0:6b:4c:7e
-----BEGIN CERTIFICATE-----
MIIDiDCCAnCgAwIBAgIBATANBgkqhkiG9w0BAQsFADA6MREwDwYDVQQKDAhUZXN0
IE9yZzElMCMGA1UEAwwcVGVzdCBPcmcgcmF1YyBDQSBEZXZlbG9wbWVudDAiGA8x
OTcwMDEwMTAwMDAwMFoYDzk5OTkxMjMxMjM1OTU5WjA6MREwDwYDVQQKDAhUZXN0
IE9yZzElMCMGA1UEAwwcVGVzdCBPcmcgcmF1YyBDQSBEZXZlbG9wbWVudDCCASIw
DQYJKoZIhvcNAQEBBQADggEPADCCAQoCggEBAMnT0MFyS8r3V2itBcKjc4CZxn9B
Q1BnVQn5OPNLYGrdVuxe1yE2U+0kKX8h3X4Pw0zKaYJT+xsEEg5K1YrGUM3YlrZG
CvCz3ODS/ykeGZ/F8/MVq9l2nXP+yqTn//Ewt+d9/OwK3BvyEi4Vcw++fis7+ntQ
cKU/x7d7g820e0uLuHWpllmPOKq3Ka43RVy3rRiT5S+GBzSxd4SIxN2lY7cnVtj3
lGsaK1ohD2N78BRqF8odr4rA5ZCZQh/p9nqeD06GlTv0mTyDU9dd2FYfmSWcHLl7
PGGoQoxULkb4QSJU5pY4EojoPMvBbWUWrRIPaYrif9jpvtWM0Vw6J3KP+fsCAwEA
AaOBlDCBkTAdBgNVHQ4EFgQUPs9A/xhBNRbR08jGPHE87ss/Y0UwYgYDVR0jBFsw
WYAUPs9A/xhBNRbR08jGPHE87ss/Y0WhPqQ8MDoxETAPBgNVBAoMCFRlc3QgT3Jn
MSUwIwYDVQQDDBxUZXN0IE9yZyByYXVjIENBIERldmVsb3BtZW50ggEBMAwGA1Ud
EwQFMAMBAf8wDQYJKoZIhvcNAQELBQADggEBALFUqkXqBFUQWKLJmt/+XEhH2p8+
S/PqaJnSpnh5p0gj1d5UeoZDeH0sj6vq8aYgODXDoGGjyT48YSuIwNpP27VGQzs9
8a1JH7TdsQtm8NZYlknnaAUBg0lcQ2Y4aPPaQPYYhAqygm5ewfJeqVpcToh+/JLg
dFHOxlfHOIyAIEfCAe9JPH4WUP4kj7NI71wIU3puJkK0msmZCgUcQzIgp35ERdYz
w8+RiqpITKgiQ0nfRzAoZFsEey1GMLgZWuZszuMQGTSsnMv2GDshnfbVbI95r3/L
FiHCRcjLB161N3Ifm7IDeMdwjhM6hM/HryG/3HfrJaC3tZvrF7z7JaBrTH4=
-----END CERTIFICATE-----