Certificate:
    Data:
        Version: 3 (0x2)
        Serial Number: 2 (0x2)
    Signature Algorithm: sha256WithRSAEncryption
        Issuer: O=Test Org, CN=Test Org rauc CA Development
        Validity
            Not Before: Jan  1 00:00:00 1970 GMT
            Not After : Dec 31 23:59:59 9999 GMT
        Subject: O=Test Org, CN=Test Org Development-1
        Subject Public Key Info:
            Public Key Algorithm: rsaEncryption
                Public-Key: (2048 bit)
                Modulus:
                    00:d0:4a:6d:0e:00:1e:08:07:fe:8e:c2:1f:a5:fe:
                    dc:f4:a9:9f:7d:b0:80:13:2d:ee:16:11:25:ba:60:
                    b5:f3:e5:6e:81:56:0a:eb:54:bb:09:18:ca:bd:2b:
                    88:0c:26:eb:9c:45:bf:7f:78:fe:54:3a:c4:aa:99:
                    30:43:8b:44:c7:38:8a:a3:79:82:b4:4a:e1:a9:d0:
                    16:c3:df:df:d2:ef:f3:34:17:ea:83:87:2b:f7:c2:
                    d1:90:96:46:85:31:e1:f3:58:ea:a9:33:ef:a9:29:
                    7f:38:22:9c:9a:ab:1e:e4:7c:c7:13:e0:3c:d6:ff:
                    74:e3:61:05:9b:df:48:7d:61:ea:b0:78:8d:ce:09:
                    af:37:9c:b4:b7:7f:d3:41:36:df:78:00:4b:28:26:
                    b0:3a:2d:2f:7b:41:98:34:6b:2d:66:d8:b4:d4:39:
                    17:0f:99:48:88:5d:6f:61:13:9c:88:68:62:92:5f:
                    71:f8:53:b1:10:a6:78:18:81:9b:b2:16:f9:0c:6b:
                    a4:cf:ee:2b:19:6c:3c:82:64:57:9e:39:31:bf:a2:
                    17:06:6a:83:e0:0a:28:48:2e:4a:b1:f7:f7:c7:51:
                    51:03:b9:12:c1:4d:25:d9:f1:3b:b8:21:e0:63:7f:
                    dd:37:33:b8:20:52:55:a2:46:f2:cb:86:48:bc:0a:
                    a6:59
                Exponent: 65537 (0x10001)
        X509v3 extensions:
            X509v3 Subject Key Identifier: 
                42:56:68:BF:2F:16:F8:96:4F:D3:23:83:CF:3A:E0:2F:AB:A0:7F:84
            X509v3 Authority Key Identifier: 
                keyid:3E:CF:40:FF:18:41:35:16:D1:D3:C8:C6:3C:71:3C:EE:CB:3F:63:45
                DirName:/O=Test Org/CN=Test Org rauc CA Development
                serial:01

            X509v3 Basic Constraints: 
                CA:FALSE
    Signature Algorithm: sha256WithRSAEncryption
         a2:a5:b7:95:19:1f:01:2a:91:c5:59:80:b6:a1:b1:9a:0e:9a:
         f1:0f:13:c9:44:05:e3:e1:93:32:42:e6:c2:9f:e8:60:ce:e3:
         73:ce:a3:bb:2b:cf:7e:a4:72:c9:ed:c8:32:29:49:41:91:3a:
         c9:fa:60:6c:bf:37:4e:ed:7b:ce:6b:5c:70:4d:3f:af:39:b8:
         01:f2:23:6d:d5:dc:f6:28:95:cc:15:c1:8a:3c:37:32:77:dc:
         bb:38:65:ff:62:c7:cd:03:68:5b:2e:ee:90:ee:4b:0a:d7:65:
         a2:8e:be:3f:89:45:e7:e4:1f:ac:f0:31:40:a4:01:12:a1:db:
         f5:28:b4:f3:57:a8:13:b1:81:a4:4e:e6:4a:9d:79:35:6f:23:
         89:2c:5c:eb:57:f9:63:06:e1:ab:e4:b9:91:d9:e2:cf:c8:c5:
         64:90:ab:a3:f0:7e:4b:4b:3c:40:21:14:30:5b:6b:e5:f8:17:
         9e:b4:dc:6e:e3:30:f1:87:58:c1:2a:12:bf:b6:1d:b5:77:c5:
         af:20:1d:03:5d:e5:19:e3:01:ac:52:40:ad:b4:0b:b0:c6:d6:
         56:79:5b:cd:5a:f1:9b:e6:1b:71:84:74:ef:51:26:ae:0e:9f:
         eb:e4:09:04:49:1e:10:e2:e4:e4:6f:fc:f4:47:e2:e8:bd:37:
         f5:4e:07:eb
-----BEGIN CERTIFICATE-----
MIIDfzCCAmegAwIBAgIBAjANBgkqhkiG9w0BAQsFADA6MREwDwYDVQQKDAhUZXN0
IE9yZzElMCMGA1UEAwwcVGVzdCBPcmcgcmF1YyBDQSBEZXZlbG9wbWVudDAiGA8x
OTcwMDEwMTAwMDAwMFoYDzk5OTkxMjMxMjM1OTU5WjA0MREwDwYDVQQKDAhUZXN0
IE9yZzEfMB0GA1UEAwwWVGVzdCBPcmcgRGV2ZWxvcG1lbnQtMTCCASIwDQYJKoZI
hvcNAQEBBQADggEPADCCAQoCggEBANBKbQ4AHggH/o7CH6X+3PSpn32wgBMt7hYR
JbpgtfPlboFWCutUuwkYyr0riAwm65xFv394/lQ6xKqZMEOLRMc4iqN5grRK4anQ
FsPf39Lv8zQX6oOHK/fC0ZCWRoUx4fNY6qkz76kpfzginJqrHuR8xxPgPNb/dONh
BZvfSH1h6rB4jc4JrzectLd/00E233gASygmsDotL3tBmDRrLWbYtNQ5Fw+ZSIhd
b2ETnIhoYpJfcfhTsRCmeBiBm7IW+QxrpM/uKxlsPIJkV545Mb+iFwZqg+AKKEgu
SrH398dRUQO5EsFNJdnxO7gh4GN/3TczuCBSVaJG8suGSLwKplkCAwEAAaOBkTCB
jjAdBgNVHQ4EFgQUQlZovy8W+JZP0yODzzrgL6ugf4QwYgYDVR0jBFswWYAUPs9A
/xhBNRbR08jGPHE87ss/Y0WhPqQ8MDoxETAPBgNVBAoMCFRlc3QgT3JnMSUwIwYD
VQQDDBxUZXN0IE9yZyByYXVjIENBIERldmVsb3BtZW50ggEBMAkGA1UdEwQCMAAw
DQYJKoZIhvcNAQELBQADggEBAKKlt5UZHwEqkcVZgLahsZoOmvEPE8lEBePhkzJC
5sKf6GDO43POo7srz36kcsntyDIpSUGROsn6YGy/N07te85rXHBNP685uAHyI23V
3PYolcwVwYo8NzJ33Ls4Zf9ix80DaFsu7pDuSwrXZaKOvj+JRefkH6zwMUCkARKh
2/UotPNXqBOxgaRO5kqdeTVvI4ksXOtX+WMG4avkuZHZ4s/IxWSQq6PwfktLPEAh
FDBba+X4F5603G7jMPGHWMEqEr+2HbV3xa8gHQNd5RnjAaxSQK20C7DG1lZ5W81a
8ZvmG3GEdO9RJq4On+vkCQRJHhDi5ORv/PRH4ui9N/VOB+s=
-----END CERTIFICATE-----
